; Function Attrs: nounwind uwtable
define internal i32 @ServerRecv(ptr readnone captures(none) %0, ptr noundef %1, i32 noundef %2, ptr noundef %3) #0 {
  %5 = getelementptr inbounds nuw i8, ptr %3, i64 76
  %6 = load i32, ptr %5, align 4, !tbaa !46
  %.not = icmp eq i32 %6, 0
  br i1 %.not, label %50, label %7

7:                                                ; preds = %4
  %8 = getelementptr inbounds nuw i8, ptr %3, i64 80
  %9 = getelementptr inbounds nuw i8, ptr %3, i64 16584
  %10 = tail call i32 @wolfSSL_CondStart(ptr noundef nonnull %9) #17
  %.not.i = icmp eq i32 %10, 0
  br i1 %.not.i, label %.preheader.i, label %14

.preheader.i:                                     ; preds = %7
  %11 = getelementptr inbounds nuw i8, ptr %3, i64 16572
  %12 = getelementptr inbounds nuw i8, ptr %3, i64 16580
  %13 = getelementptr inbounds nuw i8, ptr %3, i64 33272
  br label %18

14:                                               ; preds = %7
  %15 = tail call ptr @__errno_location() #21
  store i32 %10, ptr %15, align 4, !tbaa !4
  %16 = load ptr, ptr @stderr, align 8, !tbaa !19
  %17 = tail call i32 (ptr, ptr, ...) @fprintf(ptr noundef %16, ptr noundef nonnull @.str.7, ptr noundef nonnull @.str.8, i32 noundef 473, i32 noundef %10, ptr noundef nonnull @.str.96) #18
  tail call fastcc void @err_sys(ptr noundef nonnull @.str.10) #22
  unreachable

18:                                               ; preds = %25, %.preheader.i
  %19 = load i32, ptr %11, align 4, !tbaa !91
  %20 = load i32, ptr %12, align 4, !tbaa !98
  %21 = sub nsw i32 %19, %20
  %22 = icmp slt i32 %21, %2
  br i1 %22, label %23, label %.critedge.i

23:                                               ; preds = %18
  %24 = load i32, ptr %13, align 8, !tbaa !48
  %.not35.i = icmp eq i32 %24, 0
  br i1 %.not35.i, label %25, label %.critedge.i

25:                                               ; preds = %23
  %26 = tail call i32 @wolfSSL_CondWait(ptr noundef nonnull %9) #17
  %.not38.i = icmp eq i32 %26, 0
  br i1 %.not38.i, label %18, label %27, !llvm.loop !99

27:                                               ; preds = %25
  %28 = tail call ptr @__errno_location() #21
  store i32 %26, ptr %28, align 4, !tbaa !4
  %29 = load ptr, ptr @stderr, align 8, !tbaa !19
  %30 = tail call i32 (ptr, ptr, ...) @fprintf(ptr noundef %29, ptr noundef nonnull @.str.7, ptr noundef nonnull @.str.8, i32 noundef 478, i32 noundef %26, ptr noundef nonnull @.str.138) #18
  tail call fastcc void @err_sys(ptr noundef nonnull @.str.10) #22
  unreachable

.critedge.i:                                      ; preds = %23, %18
  %31 = sext i32 %20 to i64
  %32 = getelementptr inbounds [16486 x i8], ptr %8, i64 0, i64 %31
  %33 = sext i32 %2 to i64
  tail call void @llvm.memcpy.p0.p0.i64(ptr align 1 %1, ptr nonnull align 1 %32, i64 %33, i1 false)
  %34 = load i32, ptr %12, align 4, !tbaa !98
  %35 = add nsw i32 %34, %2
  store i32 %35, ptr %12, align 4, !tbaa !98
  %36 = getelementptr inbounds nuw i8, ptr %3, i64 16576
  %37 = load i32, ptr %36, align 8, !tbaa !100
  %38 = add nsw i32 %37, %2
  store i32 %38, ptr %36, align 8, !tbaa !100
  %39 = getelementptr inbounds nuw i8, ptr %3, i64 16568
  %40 = load i32, ptr %39, align 8, !tbaa !92
  %41 = icmp eq i32 %38, %40
  br i1 %41, label %42, label %43

42:                                               ; preds = %.critedge.i
  tail call void @llvm.memset.p0.i64(ptr noundef nonnull align 8 dereferenceable(16) %39, i8 0, i64 16, i1 false)
  br label %43

43:                                               ; preds = %42, %.critedge.i
  %44 = tail call i32 @wolfSSL_CondEnd(ptr noundef nonnull %9) #17
  %.not36.i = icmp eq i32 %44, 0
  br i1 %.not36.i, label %ServerMemRecv.exit, label %45

45:                                               ; preds = %43
  %46 = tail call ptr @__errno_location() #21
  store i32 %44, ptr %46, align 4, !tbaa !4
  %47 = load ptr, ptr @stderr, align 8, !tbaa !19
  %48 = tail call i32 (ptr, ptr, ...) @fprintf(ptr noundef %47, ptr noundef nonnull @.str.7, ptr noundef nonnull @.str.8, i32 noundef 496, i32 noundef %44, ptr noundef nonnull @.str.98) #18
  tail call fastcc void @err_sys(ptr noundef nonnull @.str.10) #22
  unreachable

ServerMemRecv.exit:                               ; preds = %43
  %49 = load i32, ptr %13, align 8, !tbaa !48
  %.not37.i = icmp eq i32 %49, 0
  %..i = select i1 %.not37.i, i32 %2, i32 -1
  br label %SocketRecv.exit

50:                                               ; preds = %4
  %51 = getelementptr inbounds nuw i8, ptr %3, i64 68
  %52 = load i32, ptr %51, align 4, !tbaa !44
  %53 = sext i32 %2 to i64
  %54 = tail call i64 @recv(i32 noundef %52, ptr noundef %1, i64 noundef %53, i32 noundef 0) #17
  %55 = trunc i64 %54 to i32
  switch i32 %55, label %63 [
    i32 -1, label %56
    i32 0, label %SocketRecv.exit
  ]

56:                                               ; preds = %50
  %57 = tail call ptr @__errno_location() #21
  %58 = load i32, ptr %57, align 4, !tbaa !4
  switch i32 %58, label %62 [
    i32 11, label %SocketRecv.exit
    i32 104, label %59
    i32 4, label %60
    i32 111, label %SocketRecv.exit
    i32 103, label %61
  ]

59:                                               ; preds = %56
  br label %SocketRecv.exit

60:                                               ; preds = %56
  br label %SocketRecv.exit

61:                                               ; preds = %56
  br label %SocketRecv.exit

62:                                               ; preds = %56
  br label %SocketRecv.exit

63:                                               ; preds = %50
  br label %SocketRecv.exit

SocketRecv.exit:                                  ; preds = %63, %62, %61, %60, %59, %56, %56, %50, %ServerMemRecv.exit
  %.0 = phi i32 [ %..i, %ServerMemRecv.exit ], [ -1, %62 ], [ -5, %61 ], [ -4, %60 ], [ -3, %59 ], [ %55, %63 ], [ -2, %56 ], [ -2, %56 ], [ -5, %50 ]
  ret i32 %.0
}